target datalayout = "e-m:e-p270:32:32-p271:32:32-p272:64:64-i64:64-i128:128-f80:128-n8:16:32:64-S128"
target triple = "x86_64-unknown-linux-gnu"

%"class.std::basic_istream" = type { ptr, i64, %"class.std::basic_ios" }
%"class.std::basic_ios" = type { %"class.std::ios_base", ptr, i8, i8, ptr, ptr, ptr, ptr }
%"class.std::ios_base" = type { ptr, i64, i64, i32, i32, i32, ptr, %"struct.std::ios_base::_Words", [8 x %"struct.std::ios_base::_Words"], i32, ptr, %"class.std::locale" }
%"struct.std::ios_base::_Words" = type { ptr, i64 }
%"class.std::locale" = type { ptr }
%"class.std::basic_ostream" = type { ptr, %"class.std::basic_ios" }
%class.veloxtpFlexLexer = type <{ %class.FlexLexer.base, i32, i32, [4 x i8], ptr, %"class.std::basic_istream", %"class.std::basic_ostream", i8, [3 x i8], i32, ptr, i32, i32, i32, [4 x i8], i64, i64, ptr, i32, [4 x i8], ptr, ptr, ptr, ptr, ptr, i32, i32, i32, i32, i32, i32, i32, [4 x i8] }>
%class.FlexLexer.base = type <{ ptr, ptr, i32, i32, i32 }>
%class.FlexLexer = type <{ ptr, ptr, i32, i32, i32, [4 x i8] }>

; Function Attrs: mustprogress nounwind uwtable
define void @_ZN16veloxtpFlexLexer11ctor_commonEv(ptr noundef nonnull align 8 dereferenceable(732) %this) #4 align 2 {
entry:
  %this.addr = alloca ptr, align 8
  store ptr %this, ptr %this.addr, align 8
  %this1 = load ptr, ptr %this.addr, align 8
  %yy_c_buf_p = getelementptr inbounds %class.veloxtpFlexLexer, ptr %this1, i32 0, i32 10
  store ptr null, ptr %yy_c_buf_p, align 8
  %yy_init = getelementptr inbounds %class.veloxtpFlexLexer, ptr %this1, i32 0, i32 11
  store i32 0, ptr %yy_init, align 8
  %yy_start = getelementptr inbounds %class.veloxtpFlexLexer, ptr %this1, i32 0, i32 12
  store i32 0, ptr %yy_start, align 4
  %yy_flex_debug = getelementptr inbounds %class.FlexLexer, ptr %this1, i32 0, i32 4
  store i32 0, ptr %yy_flex_debug, align 8
  %yylineno = getelementptr inbounds %class.FlexLexer, ptr %this1, i32 0, i32 3
  store i32 1, ptr %yylineno, align 4
  %yy_did_buffer_switch_on_eof = getelementptr inbounds %class.veloxtpFlexLexer, ptr %this1, i32 0, i32 13
  store i32 0, ptr %yy_did_buffer_switch_on_eof, align 8
  %yy_looking_for_trail_begin = getelementptr inbounds %class.veloxtpFlexLexer, ptr %this1, i32 0, i32 27
  store i32 0, ptr %yy_looking_for_trail_begin, align 8
  %yy_more_flag = getelementptr inbounds %class.veloxtpFlexLexer, ptr %this1, i32 0, i32 28
  store i32 0, ptr %yy_more_flag, align 4
  %yy_more_len = getelementptr inbounds %class.veloxtpFlexLexer, ptr %this1, i32 0, i32 29
  store i32 0, ptr %yy_more_len, align 8
  %yy_prev_more_offset = getelementptr inbounds %class.veloxtpFlexLexer, ptr %this1, i32 0, i32 31
  store i32 0, ptr %yy_prev_more_offset, align 8
  %yy_more_offset = getelementptr inbounds %class.veloxtpFlexLexer, ptr %this1, i32 0, i32 30
  store i32 0, ptr %yy_more_offset, align 4
  %yy_start_stack_depth = getelementptr inbounds %class.veloxtpFlexLexer, ptr %this1, i32 0, i32 2
  store i32 0, ptr %yy_start_stack_depth, align 8
  %yy_start_stack_ptr = getelementptr inbounds %class.veloxtpFlexLexer, ptr %this1, i32 0, i32 1
  store i32 0, ptr %yy_start_stack_ptr, align 4
  %yy_start_stack = getelementptr inbounds %class.veloxtpFlexLexer, ptr %this1, i32 0, i32 4
  store ptr null, ptr %yy_start_stack, align 8
  %yy_buffer_stack = getelementptr inbounds %class.veloxtpFlexLexer, ptr %this1, i32 0, i32 17
  store ptr null, ptr %yy_buffer_stack, align 8
  %yy_buffer_stack_top = getelementptr inbounds %class.veloxtpFlexLexer, ptr %this1, i32 0, i32 15
  store i64 0, ptr %yy_buffer_stack_top, align 8
  %yy_buffer_stack_max = getelementptr inbounds %class.veloxtpFlexLexer, ptr %this1, i32 0, i32 16
  store i64 0, ptr %yy_buffer_stack_max, align 8
  %yy_state_buf = getelementptr inbounds %class.veloxtpFlexLexer, ptr %this1, i32 0, i32 21
  store ptr null, ptr %yy_state_buf, align 8
  ret void
}