; Function Attrs: mustprogress nofree norecurse nosync nounwind willreturn memory(argmem: write) uwtable
define void @_ZN16veloxtpFlexLexer11ctor_commonEv(ptr nocapture noundef nonnull writeonly align 8 dereferenceable(732) %this) local_unnamed_addr #7 align 2 {
entry:
  %yy_c_buf_p = getelementptr inbounds i8, ptr %this, i64 608
  %yylineno = getelementptr inbounds i8, ptr %this, i64 20
  tail call void @llvm.memset.p0.i64(ptr noundef nonnull align 8 dereferenceable(16) %yy_c_buf_p, i8 0, i64 16, i1 false)
  %yy_did_buffer_switch_on_eof = getelementptr inbounds i8, ptr %this, i64 624
  store i32 0, ptr %yy_did_buffer_switch_on_eof, align 8
  %yy_looking_for_trail_begin = getelementptr inbounds i8, ptr %this, i64 712
  store <4 x i32> <i32 1, i32 0, i32 0, i32 0>, ptr %yylineno, align 4
  %yy_start_stack = getelementptr inbounds i8, ptr %this, i64 40
  store ptr null, ptr %yy_start_stack, align 8
  %yy_buffer_stack_top = getelementptr inbounds i8, ptr %this, i64 632
  %yy_state_buf = getelementptr inbounds i8, ptr %this, i64 672
  store ptr null, ptr %yy_state_buf, align 8
  tail call void @llvm.memset.p0.i64(ptr noundef nonnull align 8 dereferenceable(24) %yy_buffer_stack_top, i8 0, i64 24, i1 false)
  tail call void @llvm.memset.p0.i64(ptr noundef nonnull align 8 dereferenceable(20) %yy_looking_for_trail_begin, i8 0, i64 20, i1 false)
  ret void
}